target datalayout = "e-m:e-p270:32:32-p271:32:32-p272:64:64-i64:64-i128:128-f80:128-n8:16:32:64-S128"
target triple = "x86_64-pc-linux-gnu"

%"struct.vcpkg::XmlSerializer" = type <{ %"class.std::__cxx11::basic_string", i32, i8, [3 x i8] }>
%"class.std::__cxx11::basic_string" = type { %"struct.std::__cxx11::basic_string<char>::_Alloc_hider", i64, %union.anon }
%"struct.std::__cxx11::basic_string<char>::_Alloc_hider" = type { ptr }
%union.anon = type { i64, [8 x i8] }

; Function Attrs: mustprogress nounwind uwtable
define linkonce_odr dso_local noundef ptr @_ZNSt19__ptr_traits_ptr_toIPKcS0_Lb0EE10pointer_toERS0_(ptr noundef nonnull align 1 dereferenceable(1) %0) #4 comdat align 2 {
  %2 = alloca ptr, align 8
  store ptr %0, ptr %2, align 8, !tbaa !11
  %3 = load ptr, ptr %2, align 8, !tbaa !11
  ret ptr %3
}

; Function Attrs: mustprogress nounwind uwtable
define available_externally noundef ptr @_ZNKSt7__cxx1112basic_stringIcSt11char_traitsIcESaIcEE13_M_local_dataEv(ptr noundef nonnull align 8 dereferenceable(32) %0) #4 align 2 {
  %2 = alloca ptr, align 8
  store ptr %0, ptr %2, align 8, !tbaa !9
  %3 = load ptr, ptr %2, align 8
  %4 = getelementptr inbounds nuw %"class.std::__cxx11::basic_string", ptr %3, i32 0, i32 2
  %5 = getelementptr inbounds [16 x i8], ptr %4, i64 0, i64 0
  %6 = call noundef ptr @_ZNSt19__ptr_traits_ptr_toIPKcS0_Lb0EE10pointer_toERS0_(ptr noundef nonnull align 1 dereferenceable(1) %5) #10
  ret ptr %6
}

; Function Attrs: mustprogress nounwind uwtable
define available_externally void @_ZNSt7__cxx1112basic_stringIcSt11char_traitsIcESaIcEE9_M_lengthEm(ptr noundef nonnull align 8 dereferenceable(32) %0, i64 noundef %1) #4 align 2 {
  %3 = alloca ptr, align 8
  %4 = alloca i64, align 8
  store ptr %0, ptr %3, align 8, !tbaa !9
  store i64 %1, ptr %4, align 8, !tbaa !13
  %5 = load ptr, ptr %3, align 8
  %6 = load i64, ptr %4, align 8, !tbaa !13
  %7 = getelementptr inbounds nuw %"class.std::__cxx11::basic_string", ptr %5, i32 0, i32 1
  store i64 %6, ptr %7, align 8, !tbaa !40
  ret void
}

; Function Attrs: noinline noreturn nounwind uwtable
define linkonce_odr hidden void @__clang_call_terminate(ptr noundef %0) #7 comdat {
  %2 = call ptr @__cxa_begin_catch(ptr %0) #10
  call void @_ZSt9terminatev() #13
  unreachable
}

; Function Attrs: mustprogress uwtable
define available_externally noundef zeroext i1 @_ZNKSt7__cxx1112basic_stringIcSt11char_traitsIcESaIcEE11_M_is_localEv(ptr noundef nonnull align 8 dereferenceable(32) %0) #0 align 2 {
  %2 = alloca i1, align 1
  %3 = alloca ptr, align 8
  store ptr %0, ptr %3, align 8, !tbaa !9
  %4 = load ptr, ptr %3, align 8
  %5 = call noundef ptr @_ZNKSt7__cxx1112basic_stringIcSt11char_traitsIcESaIcEE7_M_dataEv(ptr noundef nonnull align 8 dereferenceable(32) %4)
  %6 = call noundef ptr @_ZNKSt7__cxx1112basic_stringIcSt11char_traitsIcESaIcEE13_M_local_dataEv(ptr noundef nonnull align 8 dereferenceable(32) %4)
  %7 = icmp eq ptr %5, %6
  br i1 %7, label %8, label %14

8:                                                ; preds = %1
  %9 = getelementptr inbounds nuw %"class.std::__cxx11::basic_string", ptr %4, i32 0, i32 1
  %10 = load i64, ptr %9, align 8, !tbaa !40
  %11 = icmp ugt i64 %10, 15
  br i1 %11, label %12, label %13

12:                                               ; preds = %8
  unreachable

13:                                               ; preds = %8
  store i1 true, ptr %2, align 1
  br label %15

14:                                               ; preds = %1
  store i1 false, ptr %2, align 1
  br label %15

15:                                               ; preds = %14, %13
  %16 = load i1, ptr %2, align 1
  ret i1 %16
}

; Function Attrs: mustprogress uwtable
define available_externally void @_ZNSt7__cxx1112basic_stringIcSt11char_traitsIcESaIcEE13_M_set_lengthEm(ptr noundef nonnull align 8 dereferenceable(32) %0, i64 noundef %1) #0 align 2 {
  %3 = alloca ptr, align 8
  %4 = alloca i64, align 8
  %5 = alloca i8, align 1
  store ptr %0, ptr %3, align 8, !tbaa !9
  store i64 %1, ptr %4, align 8, !tbaa !13
  %6 = load ptr, ptr %3, align 8
  %7 = load i64, ptr %4, align 8, !tbaa !13
  call void @_ZNSt7__cxx1112basic_stringIcSt11char_traitsIcESaIcEE9_M_lengthEm(ptr noundef nonnull align 8 dereferenceable(32) %6, i64 noundef %7)
  %8 = call noundef ptr @_ZNKSt7__cxx1112basic_stringIcSt11char_traitsIcESaIcEE7_M_dataEv(ptr noundef nonnull align 8 dereferenceable(32) %6)
  %9 = load i64, ptr %4, align 8, !tbaa !13
  %10 = getelementptr inbounds nuw i8, ptr %8, i64 %9
  call void @llvm.lifetime.start.p0(i64 1, ptr %5) #10
  store i8 0, ptr %5, align 1, !tbaa !15
  call void @_ZNSt11char_traitsIcE6assignERcRKc(ptr noundef nonnull align 1 dereferenceable(1) %10, ptr noundef nonnull align 1 dereferenceable(1) %5) #10
  call void @llvm.lifetime.end.p0(i64 1, ptr %5) #10
  ret void
}

; Function Attrs: mustprogress nounwind uwtable
define linkonce_odr dso_local void @_ZNSt11char_traitsIcE6assignERcRKc(ptr noundef nonnull align 1 dereferenceable(1) %0, ptr noundef nonnull align 1 dereferenceable(1) %1) #4 comdat align 2 {
  %3 = alloca ptr, align 8
  %4 = alloca ptr, align 8
  store ptr %0, ptr %3, align 8, !tbaa !11
  store ptr %1, ptr %4, align 8, !tbaa !11
  %5 = load ptr, ptr %4, align 8, !tbaa !11
  %6 = load i8, ptr %5, align 1, !tbaa !15
  %7 = load ptr, ptr %3, align 8, !tbaa !11
  store i8 %6, ptr %7, align 1, !tbaa !15
  ret void
}

; Function Attrs: mustprogress nounwind uwtable
define available_externally noundef ptr @_ZNKSt7__cxx1112basic_stringIcSt11char_traitsIcESaIcEE7_M_dataEv(ptr noundef nonnull align 8 dereferenceable(32) %0) #4 align 2 {
  %2 = alloca ptr, align 8
  store ptr %0, ptr %2, align 8, !tbaa !9
  %3 = load ptr, ptr %2, align 8
  %4 = getelementptr inbounds nuw %"class.std::__cxx11::basic_string", ptr %3, i32 0, i32 0
  %5 = getelementptr inbounds nuw %"struct.std::__cxx11::basic_string<char>::_Alloc_hider", ptr %4, i32 0, i32 0
  %6 = load ptr, ptr %5, align 8, !tbaa !45
  ret ptr %6
}

; Function Attrs: mustprogress nounwind uwtable
define available_externally noundef i64 @_ZNKSt7__cxx1112basic_stringIcSt11char_traitsIcESaIcEE8capacityEv(ptr noundef nonnull align 8 dereferenceable(32) %0) #4 align 2 personality ptr @__gxx_personality_v0 {
  %2 = alloca ptr, align 8
  store ptr %0, ptr %2, align 8, !tbaa !9
  %3 = load ptr, ptr %2, align 8
  %4 = invoke noundef zeroext i1 @_ZNKSt7__cxx1112basic_stringIcSt11char_traitsIcESaIcEE11_M_is_localEv(ptr noundef nonnull align 8 dereferenceable(32) %3)
          to label %5 unwind label %12

5:                                                ; preds = %1
  br i1 %4, label %6, label %7

6:                                                ; preds = %5
  br label %10

7:                                                ; preds = %5
  %8 = getelementptr inbounds nuw %"class.std::__cxx11::basic_string", ptr %3, i32 0, i32 2
  %9 = load i64, ptr %8, align 8, !tbaa !15
  br label %10

10:                                               ; preds = %7, %6
  %11 = phi i64 [ 15, %6 ], [ %9, %7 ]
  ret i64 %11

12:                                               ; preds = %1
  %13 = landingpad { ptr, i32 }
          catch ptr null
  %14 = extractvalue { ptr, i32 } %13, 0
  call void @__clang_call_terminate(ptr %14) #13
  unreachable
}

; Function Attrs: mustprogress nounwind uwtable
define available_externally noundef i64 @_ZNKSt7__cxx1112basic_stringIcSt11char_traitsIcESaIcEE4sizeEv(ptr noundef nonnull align 8 dereferenceable(32) %0) #4 align 2 {
  %2 = alloca ptr, align 8
  store ptr %0, ptr %2, align 8, !tbaa !9
  %3 = load ptr, ptr %2, align 8
  %4 = getelementptr inbounds nuw %"class.std::__cxx11::basic_string", ptr %3, i32 0, i32 1
  %5 = load i64, ptr %4, align 8, !tbaa !40
  ret i64 %5
}

; Function Attrs: mustprogress uwtable
define available_externally noundef nonnull align 8 dereferenceable(32) ptr @_ZNSt7__cxx1112basic_stringIcSt11char_traitsIcESaIcEE6appendEmc(ptr noundef nonnull align 8 dereferenceable(32) %0, i64 noundef %1, i8 noundef signext %2) #0 align 2 {
  %4 = alloca ptr, align 8
  %5 = alloca i64, align 8
  %6 = alloca i8, align 1
  store ptr %0, ptr %4, align 8, !tbaa !9
  store i64 %1, ptr %5, align 8, !tbaa !13
  store i8 %2, ptr %6, align 1, !tbaa !15
  %7 = load ptr, ptr %4, align 8
  %8 = call noundef i64 @_ZNKSt7__cxx1112basic_stringIcSt11char_traitsIcESaIcEE4sizeEv(ptr noundef nonnull align 8 dereferenceable(32) %7) #10
  %9 = load i64, ptr %5, align 8, !tbaa !13
  %10 = load i8, ptr %6, align 1, !tbaa !15
  %11 = call noundef nonnull align 8 dereferenceable(32) ptr @_ZNSt7__cxx1112basic_stringIcSt11char_traitsIcESaIcEE14_M_replace_auxEmmmc(ptr noundef nonnull align 8 dereferenceable(32) %7, i64 noundef %8, i64 noundef 0, i64 noundef %9, i8 noundef signext %10)
  ret ptr %11
}

; Function Attrs: mustprogress uwtable
define available_externally void @_ZNSt7__cxx1112basic_stringIcSt11char_traitsIcESaIcEE9push_backEc(ptr noundef nonnull align 8 dereferenceable(32) %0, i8 noundef signext %1) #0 align 2 {
  %3 = alloca ptr, align 8
  %4 = alloca i8, align 1
  %5 = alloca i64, align 8
  store ptr %0, ptr %3, align 8, !tbaa !9
  store i8 %1, ptr %4, align 1, !tbaa !15
  %6 = load ptr, ptr %3, align 8
  call void @llvm.lifetime.start.p0(i64 8, ptr %5) #10
  %7 = call noundef i64 @_ZNKSt7__cxx1112basic_stringIcSt11char_traitsIcESaIcEE4sizeEv(ptr noundef nonnull align 8 dereferenceable(32) %6) #10
  store i64 %7, ptr %5, align 8, !tbaa !13
  %8 = load i64, ptr %5, align 8, !tbaa !13
  %9 = add i64 %8, 1
  %10 = call noundef i64 @_ZNKSt7__cxx1112basic_stringIcSt11char_traitsIcESaIcEE8capacityEv(ptr noundef nonnull align 8 dereferenceable(32) %6) #10
  %11 = icmp ugt i64 %9, %10
  br i1 %11, label %12, label %14

12:                                               ; preds = %2
  %13 = load i64, ptr %5, align 8, !tbaa !13
  call void @_ZNSt7__cxx1112basic_stringIcSt11char_traitsIcESaIcEE9_M_mutateEmmPKcm(ptr noundef nonnull align 8 dereferenceable(32) %6, i64 noundef %13, i64 noundef 0, ptr noundef null, i64 noundef 1)
  br label %14

14:                                               ; preds = %12, %2
  %15 = call noundef ptr @_ZNKSt7__cxx1112basic_stringIcSt11char_traitsIcESaIcEE7_M_dataEv(ptr noundef nonnull align 8 dereferenceable(32) %6)
  %16 = load i64, ptr %5, align 8, !tbaa !13
  %17 = getelementptr inbounds nuw i8, ptr %15, i64 %16
  call void @_ZNSt11char_traitsIcE6assignERcRKc(ptr noundef nonnull align 1 dereferenceable(1) %17, ptr noundef nonnull align 1 dereferenceable(1) %4) #10
  %18 = load i64, ptr %5, align 8, !tbaa !13
  %19 = add i64 %18, 1
  call void @_ZNSt7__cxx1112basic_stringIcSt11char_traitsIcESaIcEE13_M_set_lengthEm(ptr noundef nonnull align 8 dereferenceable(32) %6, i64 noundef %19)
  call void @llvm.lifetime.end.p0(i64 8, ptr %5) #10
  ret void
}

; Function Attrs: mustprogress uwtable
define dso_local noundef nonnull align 8 dereferenceable(37) ptr @_ZN5vcpkg13XmlSerializer19emit_pending_indentEv(ptr noundef nonnull align 8 dereferenceable(37) %0) #0 align 2 {
  %2 = alloca ptr, align 8
  store ptr %0, ptr %2, align 8, !tbaa !4
  %3 = load ptr, ptr %2, align 8
  %4 = getelementptr inbounds nuw %"struct.vcpkg::XmlSerializer", ptr %3, i32 0, i32 2
  %5 = load i8, ptr %4, align 4, !tbaa !22, !range !23, !noundef !24
  %6 = trunc i8 %5 to i1
  br i1 %6, label %7, label %14

7:                                                ; preds = %1
  %8 = getelementptr inbounds nuw %"struct.vcpkg::XmlSerializer", ptr %3, i32 0, i32 2
  store i8 0, ptr %8, align 4, !tbaa !22
  %9 = getelementptr inbounds nuw %"struct.vcpkg::XmlSerializer", ptr %3, i32 0, i32 0
  %10 = getelementptr inbounds nuw %"struct.vcpkg::XmlSerializer", ptr %3, i32 0, i32 1
  %11 = load i32, ptr %10, align 8, !tbaa !16
  %12 = sext i32 %11 to i64
  %13 = call noundef nonnull align 8 dereferenceable(32) ptr @_ZNSt7__cxx1112basic_stringIcSt11char_traitsIcESaIcEE6appendEmc(ptr noundef nonnull align 8 dereferenceable(32) %9, i64 noundef %12, i8 noundef signext 32)
  br label %14

14:                                               ; preds = %7, %1
  ret ptr %3
}

; Function Attrs: mustprogress uwtable
define dso_local noundef nonnull align 8 dereferenceable(37) ptr @_ZN5vcpkg13XmlSerializer23finish_complex_open_tagEv(ptr noundef nonnull align 8 dereferenceable(37) %0) #0 align 2 {
  %2 = alloca ptr, align 8
  store ptr %0, ptr %2, align 8, !tbaa !4
  %3 = load ptr, ptr %2, align 8
  %4 = call noundef nonnull align 8 dereferenceable(37) ptr @_ZN5vcpkg13XmlSerializer19emit_pending_indentEv(ptr noundef nonnull align 8 dereferenceable(37) %3)
  %5 = getelementptr inbounds nuw %"struct.vcpkg::XmlSerializer", ptr %3, i32 0, i32 0
  call void @_ZNSt7__cxx1112basic_stringIcSt11char_traitsIcESaIcEE9push_backEc(ptr noundef nonnull align 8 dereferenceable(32) %5, i8 noundef signext 62)
  ret ptr %3
}