; Function Attrs: mustprogress uwtable
define dso_local noundef nonnull align 8 dereferenceable(37) ptr @_ZN5vcpkg13XmlSerializer23finish_complex_open_tagEv(ptr noundef nonnull returned align 8 dereferenceable(37) %0) local_unnamed_addr #0 align 2 personality ptr @__gxx_personality_v0 {
  %2 = getelementptr inbounds nuw i8, ptr %0, i64 36
  %3 = load i8, ptr %2, align 4, !tbaa !12, !range !16, !noundef !17
  %4 = trunc nuw i8 %3 to i1
  br i1 %4, label %5, label %_ZN5vcpkg13XmlSerializer19emit_pending_indentEv.exit

5:                                                ; preds = %1
  store i8 0, ptr %2, align 4, !tbaa !12
  %6 = getelementptr inbounds nuw i8, ptr %0, i64 32
  %7 = load i32, ptr %6, align 8, !tbaa !18
  %8 = sext i32 %7 to i64
  %9 = getelementptr inbounds nuw i8, ptr %0, i64 8
  %10 = load i64, ptr %9, align 8, !tbaa !4
  %11 = tail call noundef nonnull align 8 dereferenceable(32) ptr @_ZNSt7__cxx1112basic_stringIcSt11char_traitsIcESaIcEE14_M_replace_auxEmmmc(ptr noundef nonnull align 8 dereferenceable(37) %0, i64 noundef %10, i64 noundef 0, i64 noundef %8, i8 noundef signext 32)
  br label %_ZN5vcpkg13XmlSerializer19emit_pending_indentEv.exit

_ZN5vcpkg13XmlSerializer19emit_pending_indentEv.exit: ; preds = %1, %5
  %12 = getelementptr inbounds nuw i8, ptr %0, i64 8
  %13 = load i64, ptr %12, align 8, !tbaa !4
  %14 = add i64 %13, 1
  %15 = load ptr, ptr %0, align 8, !tbaa !19
  %16 = getelementptr inbounds nuw i8, ptr %0, i64 16
  %17 = icmp eq ptr %15, %16
  br i1 %17, label %18, label %_ZNKSt7__cxx1112basic_stringIcSt11char_traitsIcESaIcEE8capacityEv.exit.i

18:                                               ; preds = %_ZN5vcpkg13XmlSerializer19emit_pending_indentEv.exit
  %19 = icmp ult i64 %13, 16
  tail call void @llvm.assume(i1 %19)
  br label %_ZNKSt7__cxx1112basic_stringIcSt11char_traitsIcESaIcEE8capacityEv.exit.i

_ZNKSt7__cxx1112basic_stringIcSt11char_traitsIcESaIcEE8capacityEv.exit.i: ; preds = %18, %_ZN5vcpkg13XmlSerializer19emit_pending_indentEv.exit
  %20 = load i64, ptr %16, align 8
  %21 = select i1 %17, i64 15, i64 %20
  %22 = icmp ugt i64 %14, %21
  br i1 %22, label %23, label %_ZNSt7__cxx1112basic_stringIcSt11char_traitsIcESaIcEE9push_backEc.exit

23:                                               ; preds = %_ZNKSt7__cxx1112basic_stringIcSt11char_traitsIcESaIcEE8capacityEv.exit.i
  tail call void @_ZNSt7__cxx1112basic_stringIcSt11char_traitsIcESaIcEE9_M_mutateEmmPKcm(ptr noundef nonnull align 8 dereferenceable(32) %0, i64 noundef %13, i64 noundef 0, ptr noundef null, i64 noundef 1)
  %.pre.i = load ptr, ptr %0, align 8, !tbaa !19
  br label %_ZNSt7__cxx1112basic_stringIcSt11char_traitsIcESaIcEE9push_backEc.exit

_ZNSt7__cxx1112basic_stringIcSt11char_traitsIcESaIcEE9push_backEc.exit: ; preds = %_ZNKSt7__cxx1112basic_stringIcSt11char_traitsIcESaIcEE8capacityEv.exit.i, %23
  %24 = phi ptr [ %.pre.i, %23 ], [ %15, %_ZNKSt7__cxx1112basic_stringIcSt11char_traitsIcESaIcEE8capacityEv.exit.i ]
  %25 = getelementptr inbounds nuw i8, ptr %24, i64 %13
  store i8 62, ptr %25, align 1, !tbaa !20
  store i64 %14, ptr %12, align 8, !tbaa !4
  %26 = load ptr, ptr %0, align 8, !tbaa !19
  %27 = getelementptr inbounds nuw i8, ptr %26, i64 %14
  store i8 0, ptr %27, align 1, !tbaa !20
  ret ptr %0
}